target datalayout = "e-m:e-p270:32:32-p271:32:32-p272:64:64-i64:64-i128:128-f80:128-n8:16:32:64-S128"
target triple = "x86_64-pc-linux-gnu"

%struct.egg_handle = type { ptr, i64, i64, i32, i32, ptr, ptr, i64, ptr, i64, ptr, i64, ptr }
%struct.cl_fmap = type { ptr, ptr, ptr, i64, i64, i64, i64, i8, i8, i8, i64, i64, i64, i64, ptr, ptr, ptr, ptr, ptr, ptr, ptr, i8, [16 x i8], i8, [20 x i8], i8, [32 x i8], ptr, ptr }
%struct.egg_file = type { ptr, %struct.egg_filename, ptr, ptr, ptr, i64, ptr, i64, ptr }
%struct.egg_filename = type { ptr, i32 }
%struct.file_header = type { i32, i32, i64 }
%struct.egg_block = type { ptr, ptr }
%struct.block_header = type <{ i32, i8, i8, i32, i32, i32 }>
%struct.cl_egg_metadata = type { i64, i64, ptr, ptr, i32, i32 }
%struct.posix_file_information = type <{ i32, i32, i32, i64 }>
%struct.windows_file_information = type <{ i64, i8 }>

@.str.40 = private unnamed_addr constant [41 x i8] c"cli_egg_peek_file_header: Invalid args!\0A\00", align 1
@.str.41 = private unnamed_addr constant [50 x i8] c"cli_egg_peek_file_header: Invalid handle values!\0A\00", align 1
@.str.42 = private unnamed_addr constant [53 x i8] c"cli_egg_peek_file_header: invalid egg_file pointer!\0A\00", align 1
@.str.43 = private unnamed_addr constant [60 x i8] c"cli_egg_peek_file_header: egg_file is missing file header!\0A\00", align 1
@.str.44 = private unnamed_addr constant [53 x i8] c"cli_egg_extract_file: egg_file is missing filename!\0A\00", align 1
@.str.45 = private unnamed_addr constant [39 x i8] c"cli_egg_peek_file_header: Empty file!\0A\00", align 1
@.str.46 = private unnamed_addr constant [59 x i8] c"cli_egg_peek_file_header: egg_block missing block_header!\0A\00", align 1
@.str.47 = private unnamed_addr constant [93 x i8] c"cli_egg_peek_file_header: sum of block uncompress_size's does not match listed file_length!\0A\00", align 1

; Function Attrs: nounwind uwtable
define i32 @cli_egg_peek_file_header(ptr noundef %0, ptr noundef %1) #0 {
  %3 = alloca i32, align 4
  %4 = alloca ptr, align 8
  %5 = alloca ptr, align 8
  %6 = alloca i32, align 4
  %7 = alloca ptr, align 8
  %8 = alloca ptr, align 8
  %9 = alloca i64, align 8
  %10 = alloca ptr, align 8
  store ptr %0, ptr %4, align 8
  store ptr %1, ptr %5, align 8
  store i32 27, ptr %6, align 4
  store ptr null, ptr %7, align 8
  store ptr null, ptr %8, align 8
  %11 = load ptr, ptr %4, align 8
  %12 = icmp ne ptr %11, null
  br i1 %12, label %13, label %16

13:                                               ; preds = %2
  %14 = load ptr, ptr %5, align 8
  %15 = icmp ne ptr %14, null
  br i1 %15, label %17, label %16

16:                                               ; preds = %13, %2
  call void (ptr, ...) @cli_errmsg(ptr noundef @.str.40)
  store i32 3, ptr %3, align 4
  br label %204

17:                                               ; preds = %13
  %18 = load ptr, ptr %4, align 8
  store ptr %18, ptr %7, align 8
  %19 = load ptr, ptr %7, align 8
  %20 = icmp ne ptr %19, null
  br i1 %20, label %21, label %36

21:                                               ; preds = %17
  %22 = load ptr, ptr %7, align 8
  %23 = getelementptr inbounds %struct.egg_handle, ptr %22, i32 0, i32 0
  %24 = load ptr, ptr %23, align 8
  %25 = icmp ne ptr %24, null
  br i1 %25, label %26, label %36

26:                                               ; preds = %21
  %27 = load ptr, ptr %7, align 8
  %28 = getelementptr inbounds %struct.egg_handle, ptr %27, i32 0, i32 1
  %29 = load i64, ptr %28, align 8
  %30 = load ptr, ptr %7, align 8
  %31 = getelementptr inbounds %struct.egg_handle, ptr %30, i32 0, i32 0
  %32 = load ptr, ptr %31, align 8
  %33 = getelementptr inbounds %struct.cl_fmap, ptr %32, i32 0, i32 13
  %34 = load i64, ptr %33, align 8
  %35 = icmp ugt i64 %29, %34
  br label %36

36:                                               ; preds = %26, %21, %17
  %37 = phi i1 [ true, %21 ], [ true, %17 ], [ %35, %26 ]
  %38 = select i1 %37, i32 3, i32 0
  %39 = icmp ne i32 0, %38
  br i1 %39, label %40, label %41

40:                                               ; preds = %36
  call void (ptr, ...) @cli_errmsg(ptr noundef @.str.41)
  store i32 3, ptr %6, align 4
  br label %202

41:                                               ; preds = %36
  %42 = load ptr, ptr %5, align 8
  call void @llvm.memset.p0.i64(ptr align 8 %42, i8 0, i64 40, i1 false)
  %43 = load ptr, ptr %7, align 8
  %44 = getelementptr inbounds %struct.egg_handle, ptr %43, i32 0, i32 2
  %45 = load i64, ptr %44, align 8
  %46 = load ptr, ptr %7, align 8
  %47 = getelementptr inbounds %struct.egg_handle, ptr %46, i32 0, i32 7
  %48 = load i64, ptr %47, align 8
  %49 = icmp uge i64 %45, %48
  br i1 %49, label %50, label %51

50:                                               ; preds = %41
  store i32 22, ptr %6, align 4
  br label %202

51:                                               ; preds = %41
  %52 = load ptr, ptr %7, align 8
  %53 = getelementptr inbounds %struct.egg_handle, ptr %52, i32 0, i32 8
  %54 = load ptr, ptr %53, align 8
  %55 = load ptr, ptr %7, align 8
  %56 = getelementptr inbounds %struct.egg_handle, ptr %55, i32 0, i32 2
  %57 = load i64, ptr %56, align 8
  %58 = getelementptr inbounds ptr, ptr %54, i64 %57
  %59 = load ptr, ptr %58, align 8
  store ptr %59, ptr %8, align 8
  %60 = load ptr, ptr %8, align 8
  %61 = icmp eq ptr null, %60
  br i1 %61, label %62, label %63

62:                                               ; preds = %51
  call void (ptr, ...) @cli_errmsg(ptr noundef @.str.42)
  br label %202

63:                                               ; preds = %51
  %64 = load ptr, ptr %8, align 8
  %65 = getelementptr inbounds %struct.egg_file, ptr %64, i32 0, i32 0
  %66 = load ptr, ptr %65, align 8
  %67 = icmp eq ptr null, %66
  br i1 %67, label %68, label %69

68:                                               ; preds = %63
  call void (ptr, ...) @cli_errmsg(ptr noundef @.str.43)
  br label %202

69:                                               ; preds = %63
  %70 = load ptr, ptr %8, align 8
  %71 = getelementptr inbounds %struct.egg_file, ptr %70, i32 0, i32 1
  %72 = getelementptr inbounds %struct.egg_filename, ptr %71, i32 0, i32 0
  %73 = load ptr, ptr %72, align 8
  %74 = icmp eq ptr null, %73
  br i1 %74, label %75, label %76

75:                                               ; preds = %69
  call void (ptr, ...) @cli_errmsg(ptr noundef @.str.44)
  br label %202

76:                                               ; preds = %69
  %77 = load ptr, ptr %7, align 8
  %78 = getelementptr inbounds %struct.egg_handle, ptr %77, i32 0, i32 3
  %79 = load i32, ptr %78, align 8
  %80 = icmp ne i32 %79, 0
  br i1 %80, label %81, label %91

81:                                               ; preds = %76
  %82 = load ptr, ptr %5, align 8
  %83 = getelementptr inbounds %struct.cl_egg_metadata, ptr %82, i32 0, i32 0
  store i64 0, ptr %83, align 8
  %84 = load ptr, ptr %8, align 8
  %85 = getelementptr inbounds %struct.egg_file, ptr %84, i32 0, i32 0
  %86 = load ptr, ptr %85, align 8
  %87 = getelementptr inbounds %struct.file_header, ptr %86, i32 0, i32 2
  %88 = load i64, ptr %87, align 1
  %89 = load ptr, ptr %5, align 8
  %90 = getelementptr inbounds %struct.cl_egg_metadata, ptr %89, i32 0, i32 1
  store i64 %88, ptr %90, align 8
  br label %152

91:                                               ; preds = %76
  store i64 0, ptr %9, align 8
  %92 = load ptr, ptr %8, align 8
  %93 = getelementptr inbounds %struct.egg_file, ptr %92, i32 0, i32 6
  %94 = load ptr, ptr %93, align 8
  %95 = icmp ne ptr %94, null
  br i1 %95, label %97, label %96

96:                                               ; preds = %91
  call void (ptr, ...) @cli_dbgmsg(ptr noundef @.str.45)
  br label %97

97:                                               ; preds = %96, %91
  store i64 0, ptr %9, align 8
  br label %98

98:                                               ; preds = %137, %97
  %99 = load i64, ptr %9, align 8
  %100 = load ptr, ptr %8, align 8
  %101 = getelementptr inbounds %struct.egg_file, ptr %100, i32 0, i32 5
  %102 = load i64, ptr %101, align 8
  %103 = icmp ult i64 %99, %102
  br i1 %103, label %104, label %140

104:                                              ; preds = %98
  %105 = load ptr, ptr %8, align 8
  %106 = getelementptr inbounds %struct.egg_file, ptr %105, i32 0, i32 6
  %107 = load ptr, ptr %106, align 8
  %108 = load i64, ptr %9, align 8
  %109 = getelementptr inbounds ptr, ptr %107, i64 %108
  %110 = load ptr, ptr %109, align 8
  store ptr %110, ptr %10, align 8
  %111 = load ptr, ptr %10, align 8
  %112 = getelementptr inbounds %struct.egg_block, ptr %111, i32 0, i32 0
  %113 = load ptr, ptr %112, align 8
  %114 = icmp ne ptr %113, null
  br i1 %114, label %116, label %115

115:                                              ; preds = %104
  call void (ptr, ...) @cli_errmsg(ptr noundef @.str.46)
  br label %202

116:                                              ; preds = %104
  %117 = load ptr, ptr %10, align 8
  %118 = getelementptr inbounds %struct.egg_block, ptr %117, i32 0, i32 0
  %119 = load ptr, ptr %118, align 8
  %120 = getelementptr inbounds %struct.block_header, ptr %119, i32 0, i32 4
  %121 = load i32, ptr %120, align 1
  %122 = zext i32 %121 to i64
  %123 = load ptr, ptr %5, align 8
  %124 = getelementptr inbounds %struct.cl_egg_metadata, ptr %123, i32 0, i32 0
  %125 = load i64, ptr %124, align 8
  %126 = add i64 %125, %122
  store i64 %126, ptr %124, align 8
  %127 = load ptr, ptr %10, align 8
  %128 = getelementptr inbounds %struct.egg_block, ptr %127, i32 0, i32 0
  %129 = load ptr, ptr %128, align 8
  %130 = getelementptr inbounds %struct.block_header, ptr %129, i32 0, i32 3
  %131 = load i32, ptr %130, align 1
  %132 = zext i32 %131 to i64
  %133 = load ptr, ptr %5, align 8
  %134 = getelementptr inbounds %struct.cl_egg_metadata, ptr %133, i32 0, i32 1
  %135 = load i64, ptr %134, align 8
  %136 = add i64 %135, %132
  store i64 %136, ptr %134, align 8
  br label %137

137:                                              ; preds = %116
  %138 = load i64, ptr %9, align 8
  %139 = add i64 %138, 1
  store i64 %139, ptr %9, align 8
  br label %98

140:                                              ; preds = %98
  %141 = load ptr, ptr %5, align 8
  %142 = getelementptr inbounds %struct.cl_egg_metadata, ptr %141, i32 0, i32 1
  %143 = load i64, ptr %142, align 8
  %144 = load ptr, ptr %8, align 8
  %145 = getelementptr inbounds %struct.egg_file, ptr %144, i32 0, i32 0
  %146 = load ptr, ptr %145, align 8
  %147 = getelementptr inbounds %struct.file_header, ptr %146, i32 0, i32 2
  %148 = load i64, ptr %147, align 1
  %149 = icmp ne i64 %143, %148
  br i1 %149, label %150, label %151

150:                                              ; preds = %140
  call void (ptr, ...) @cli_warnmsg(ptr noundef @.str.47)
  br label %151

151:                                              ; preds = %150, %140
  br label %152

152:                                              ; preds = %151, %81
  %153 = load ptr, ptr %8, align 8
  %154 = getelementptr inbounds %struct.egg_file, ptr %153, i32 0, i32 1
  %155 = getelementptr inbounds %struct.egg_filename, ptr %154, i32 0, i32 0
  %156 = load ptr, ptr %155, align 8
  %157 = call noalias ptr @strdup(ptr noundef %156) #7
  %158 = load ptr, ptr %5, align 8
  %159 = getelementptr inbounds %struct.cl_egg_metadata, ptr %158, i32 0, i32 2
  store ptr %157, ptr %159, align 8
  %160 = load ptr, ptr %8, align 8
  %161 = getelementptr inbounds %struct.egg_file, ptr %160, i32 0, i32 4
  %162 = load ptr, ptr %161, align 8
  %163 = icmp ne ptr null, %162
  br i1 %163, label %164, label %167

164:                                              ; preds = %152
  %165 = load ptr, ptr %5, align 8
  %166 = getelementptr inbounds %struct.cl_egg_metadata, ptr %165, i32 0, i32 4
  store i32 1, ptr %166, align 8
  br label %167

167:                                              ; preds = %164, %152
  %168 = load ptr, ptr %8, align 8
  %169 = getelementptr inbounds %struct.egg_file, ptr %168, i32 0, i32 3
  %170 = load ptr, ptr %169, align 8
  %171 = icmp ne ptr %170, null
  br i1 %171, label %172, label %183

172:                                              ; preds = %167
  %173 = load ptr, ptr %8, align 8
  %174 = getelementptr inbounds %struct.egg_file, ptr %173, i32 0, i32 3
  %175 = load ptr, ptr %174, align 8
  %176 = getelementptr inbounds %struct.posix_file_information, ptr %175, i32 0, i32 0
  %177 = load i32, ptr %176, align 1
  %178 = and i32 %177, 262144
  %179 = icmp ne i32 %178, 0
  br i1 %179, label %180, label %183

180:                                              ; preds = %172
  %181 = load ptr, ptr %5, align 8
  %182 = getelementptr inbounds %struct.cl_egg_metadata, ptr %181, i32 0, i32 5
  store i32 1, ptr %182, align 4
  br label %201

183:                                              ; preds = %172, %167
  %184 = load ptr, ptr %8, align 8
  %185 = getelementptr inbounds %struct.egg_file, ptr %184, i32 0, i32 2
  %186 = load ptr, ptr %185, align 8
  %187 = icmp ne ptr %186, null
  br i1 %187, label %188, label %200

188:                                              ; preds = %183
  %189 = load ptr, ptr %8, align 8
  %190 = getelementptr inbounds %struct.egg_file, ptr %189, i32 0, i32 2
  %191 = load ptr, ptr %190, align 8
  %192 = getelementptr inbounds %struct.windows_file_information, ptr %191, i32 0, i32 1
  %193 = load i8, ptr %192, align 1
  %194 = zext i8 %193 to i32
  %195 = and i32 %194, 64
  %196 = icmp ne i32 %195, 0
  br i1 %196, label %197, label %200

197:                                              ; preds = %188
  %198 = load ptr, ptr %5, align 8
  %199 = getelementptr inbounds %struct.cl_egg_metadata, ptr %198, i32 0, i32 5
  store i32 1, ptr %199, align 4
  br label %200

200:                                              ; preds = %197, %188, %183
  br label %201

201:                                              ; preds = %200, %180
  store i32 0, ptr %6, align 4
  br label %202

202:                                              ; preds = %201, %115, %75, %68, %62, %50, %40
  %203 = load i32, ptr %6, align 4
  store i32 %203, ptr %3, align 4
  br label %204

204:                                              ; preds = %202, %16
  %205 = load i32, ptr %3, align 4
  ret i32 %205
}