; Function Attrs: nounwind uwtable
define noundef i32 @cli_egg_peek_file_header(ptr noundef readonly %0, ptr noundef %1) local_unnamed_addr #1 {
  %3 = icmp ne ptr %0, null
  %4 = icmp ne ptr %1, null
  %or.cond = and i1 %3, %4
  br i1 %or.cond, label %6, label %5

5:                                                ; preds = %2
  tail call void (ptr, ...) @cli_errmsg(ptr noundef nonnull @.str.40) #11
  br label %100

6:                                                ; preds = %2
  %7 = load ptr, ptr %0, align 8
  %.not = icmp eq ptr %7, null
  br i1 %.not, label %.critedge, label %8

8:                                                ; preds = %6
  %9 = getelementptr inbounds i8, ptr %0, i64 8
  %10 = load i64, ptr %9, align 8
  %11 = getelementptr inbounds i8, ptr %7, i64 88
  %12 = load i64, ptr %11, align 8
  %13 = icmp ugt i64 %10, %12
  br i1 %13, label %.critedge, label %14

.critedge:                                        ; preds = %6, %8
  tail call void (ptr, ...) @cli_errmsg(ptr noundef nonnull @.str.41) #11
  br label %100

14:                                               ; preds = %8
  tail call void @llvm.memset.p0.i64(ptr noundef nonnull align 8 dereferenceable(40) %1, i8 0, i64 40, i1 false)
  %15 = getelementptr inbounds i8, ptr %0, i64 16
  %16 = load i64, ptr %15, align 8
  %17 = getelementptr inbounds i8, ptr %0, i64 48
  %18 = load i64, ptr %17, align 8
  %.not54 = icmp ult i64 %16, %18
  br i1 %.not54, label %19, label %100

19:                                               ; preds = %14
  %20 = getelementptr inbounds i8, ptr %0, i64 56
  %21 = load ptr, ptr %20, align 8
  %22 = getelementptr inbounds ptr, ptr %21, i64 %16
  %23 = load ptr, ptr %22, align 8
  %24 = icmp eq ptr %23, null
  br i1 %24, label %25, label %26

25:                                               ; preds = %19
  tail call void (ptr, ...) @cli_errmsg(ptr noundef nonnull @.str.42) #11
  br label %100

26:                                               ; preds = %19
  %27 = load ptr, ptr %23, align 8
  %28 = icmp eq ptr %27, null
  br i1 %28, label %29, label %30

29:                                               ; preds = %26
  tail call void (ptr, ...) @cli_errmsg(ptr noundef nonnull @.str.43) #11
  br label %100

30:                                               ; preds = %26
  %31 = getelementptr inbounds i8, ptr %23, i64 8
  %32 = load ptr, ptr %31, align 8
  %33 = icmp eq ptr %32, null
  br i1 %33, label %34, label %35

34:                                               ; preds = %30
  tail call void (ptr, ...) @cli_errmsg(ptr noundef nonnull @.str.44) #11
  br label %100

35:                                               ; preds = %30
  %36 = getelementptr inbounds i8, ptr %0, i64 24
  %37 = load i32, ptr %36, align 8
  %.not55 = icmp eq i32 %37, 0
  br i1 %.not55, label %43, label %38

38:                                               ; preds = %35
  %39 = load ptr, ptr %23, align 8
  %40 = getelementptr inbounds i8, ptr %39, i64 8
  %41 = load i64, ptr %40, align 1
  %42 = getelementptr inbounds i8, ptr %1, i64 8
  store i64 %41, ptr %42, align 8
  br label %75

43:                                               ; preds = %35
  %44 = getelementptr inbounds i8, ptr %23, i64 56
  %45 = load ptr, ptr %44, align 8
  %.not56 = icmp eq ptr %45, null
  br i1 %.not56, label %46, label %47

46:                                               ; preds = %43
  tail call void (ptr, ...) @cli_dbgmsg(ptr noundef nonnull @.str.45) #11
  br label %47

47:                                               ; preds = %46, %43
  %48 = getelementptr inbounds i8, ptr %23, i64 48
  %49 = load i64, ptr %48, align 8
  %.not65 = icmp eq i64 %49, 0
  %.phi.trans.insert = getelementptr inbounds i8, ptr %1, i64 8
  br i1 %.not65, label %.._crit_edge_crit_edge, label %.lr.ph

.._crit_edge_crit_edge:                           ; preds = %47
  %.pre = load i64, ptr %.phi.trans.insert, align 8
  br label %._crit_edge

.lr.ph:                                           ; preds = %47, %55
  %.04464 = phi i64 [ %67, %55 ], [ 0, %47 ]
  %50 = load ptr, ptr %44, align 8
  %51 = getelementptr inbounds ptr, ptr %50, i64 %.04464
  %52 = load ptr, ptr %51, align 8
  %53 = load ptr, ptr %52, align 8
  %.not58 = icmp eq ptr %53, null
  br i1 %.not58, label %54, label %55

54:                                               ; preds = %.lr.ph
  tail call void (ptr, ...) @cli_errmsg(ptr noundef nonnull @.str.46) #11
  br label %100

55:                                               ; preds = %.lr.ph
  %56 = getelementptr inbounds i8, ptr %53, i64 10
  %57 = load i32, ptr %56, align 1
  %58 = zext i32 %57 to i64
  %59 = load i64, ptr %1, align 8
  %60 = add i64 %59, %58
  store i64 %60, ptr %1, align 8
  %61 = load ptr, ptr %52, align 8
  %62 = getelementptr inbounds i8, ptr %61, i64 6
  %63 = load i32, ptr %62, align 1
  %64 = zext i32 %63 to i64
  %65 = load i64, ptr %.phi.trans.insert, align 8
  %66 = add i64 %65, %64
  store i64 %66, ptr %.phi.trans.insert, align 8
  %67 = add nuw i64 %.04464, 1
  %68 = load i64, ptr %48, align 8
  %69 = icmp ult i64 %67, %68
  br i1 %69, label %.lr.ph, label %._crit_edge

._crit_edge:                                      ; preds = %55, %.._crit_edge_crit_edge
  %70 = phi i64 [ %.pre, %.._crit_edge_crit_edge ], [ %66, %55 ]
  %71 = load ptr, ptr %23, align 8
  %72 = getelementptr inbounds i8, ptr %71, i64 8
  %73 = load i64, ptr %72, align 1
  %.not57 = icmp eq i64 %70, %73
  br i1 %.not57, label %75, label %74

74:                                               ; preds = %._crit_edge
  tail call void (ptr, ...) @cli_warnmsg(ptr noundef nonnull @.str.47) #11
  br label %75

75:                                               ; preds = %._crit_edge, %74, %38
  %76 = load ptr, ptr %31, align 8
  %77 = tail call noalias ptr @strdup(ptr noundef %76) #11
  %78 = getelementptr inbounds i8, ptr %1, i64 16
  store ptr %77, ptr %78, align 8
  %79 = getelementptr inbounds i8, ptr %23, i64 40
  %80 = load ptr, ptr %79, align 8
  %.not59 = icmp eq ptr %80, null
  br i1 %.not59, label %83, label %81

81:                                               ; preds = %75
  %82 = getelementptr inbounds i8, ptr %1, i64 32
  store i32 1, ptr %82, align 8
  br label %83

83:                                               ; preds = %81, %75
  %84 = getelementptr inbounds i8, ptr %23, i64 32
  %85 = load ptr, ptr %84, align 8
  %.not60 = icmp eq ptr %85, null
  br i1 %.not60, label %91, label %86

86:                                               ; preds = %83
  %87 = load i32, ptr %85, align 1
  %88 = and i32 %87, 262144
  %.not61 = icmp eq i32 %88, 0
  br i1 %.not61, label %91, label %89

89:                                               ; preds = %86
  %90 = getelementptr inbounds i8, ptr %1, i64 36
  store i32 1, ptr %90, align 4
  br label %100

91:                                               ; preds = %86, %83
  %92 = getelementptr inbounds i8, ptr %23, i64 24
  %93 = load ptr, ptr %92, align 8
  %.not62 = icmp eq ptr %93, null
  br i1 %.not62, label %100, label %94

94:                                               ; preds = %91
  %95 = getelementptr inbounds i8, ptr %93, i64 8
  %96 = load i8, ptr %95, align 1
  %97 = and i8 %96, 64
  %.not63 = icmp eq i8 %97, 0
  br i1 %.not63, label %100, label %98

98:                                               ; preds = %94
  %99 = getelementptr inbounds i8, ptr %1, i64 36
  store i32 1, ptr %99, align 4
  br label %100

100:                                              ; preds = %.critedge, %25, %29, %34, %54, %14, %91, %94, %98, %89, %5
  %.0 = phi i32 [ 3, %5 ], [ 3, %.critedge ], [ 27, %25 ], [ 27, %29 ], [ 27, %34 ], [ 27, %54 ], [ 22, %14 ], [ 0, %91 ], [ 0, %94 ], [ 0, %98 ], [ 0, %89 ]
  ret i32 %.0
}